target datalayout = "e-m:e-p270:32:32-p271:32:32-p272:64:64-i64:64-i128:128-f80:128-n8:16:32:64-S128"
target triple = "x86_64-pc-linux-gnu"

%struct.H5G_loc_t = type { ptr, ptr }

@.str.3 = private unnamed_addr constant [100 x i8] c"generated/home/dtcxzyw/WorkSpace/Projects/compilers/llvm-opt-benchmark/bench/hdf5/hdf5/src/H5Aint.c\00", align 1
@H5E_ATTR_g = external global i64, align 8
@H5E_CANTINIT_g = external global i64, align 8
@H5E_CANTOPENOBJ_g = external global i64, align 8
@H5E_CANTFREE_g = external global i64, align 8
@.str.27 = private unnamed_addr constant [22 x i8] c"can't close attribute\00", align 1
@__func__.H5A__open = private unnamed_addr constant [10 x i8] c"H5A__open\00", align 1
@.str.31 = private unnamed_addr constant [69 x i8] c"unable to load attribute info from object header for attribute: '%s'\00", align 1
@.str.32 = private unnamed_addr constant [31 x i8] c"unable to initialize attribute\00", align 1

; Function Attrs: nounwind uwtable
define ptr @H5A__open(ptr noundef %0, ptr noundef %1) #0 {
  %3 = alloca ptr, align 8
  %4 = alloca ptr, align 8
  %5 = alloca ptr, align 8
  %6 = alloca ptr, align 8
  %7 = alloca i8, align 1
  store ptr %0, ptr %3, align 8
  store ptr %1, ptr %4, align 8
  store ptr null, ptr %5, align 8
  store ptr null, ptr %6, align 8
  store i8 0, ptr %7, align 1
  %8 = load ptr, ptr %3, align 8
  %9 = getelementptr inbounds %struct.H5G_loc_t, ptr %8, i32 0, i32 0
  %10 = load ptr, ptr %9, align 8
  %11 = load ptr, ptr %4, align 8
  %12 = call ptr @H5O__attr_open_by_name(ptr noundef %10, ptr noundef %11)
  store ptr %12, ptr %5, align 8
  %13 = icmp eq ptr null, %12
  br i1 %13, label %14, label %30

14:                                               ; preds = %2
  br label %15

15:                                               ; preds = %14
  br label %16

16:                                               ; preds = %15
  br label %17

17:                                               ; preds = %16
  %18 = load i64, ptr @H5E_ATTR_g, align 8
  %19 = load i64, ptr @H5E_CANTOPENOBJ_g, align 8
  %20 = load ptr, ptr %4, align 8
  %21 = call i32 (ptr, ptr, i32, i64, i64, ptr, ...) @H5E_printf_stack(ptr noundef @.str.3, ptr noundef @__func__.H5A__open, i32 noundef 515, i64 noundef %18, i64 noundef %19, ptr noundef @.str.31, ptr noundef %20)
  br label %22

22:                                               ; preds = %17
  store i8 1, ptr %7, align 1
  %23 = load i8, ptr %7, align 1
  %24 = trunc i8 %23 to i1
  %25 = zext i1 %24 to i8
  store i8 %25, ptr %7, align 1
  br label %26

26:                                               ; preds = %22
  br label %27

27:                                               ; preds = %26
  store ptr null, ptr %6, align 8
  br label %52

28:                                               ; No predecessors!
  br label %29

29:                                               ; preds = %28
  br label %30

30:                                               ; preds = %29, %2
  %31 = load ptr, ptr %3, align 8
  %32 = load ptr, ptr %5, align 8
  %33 = call i32 @H5A__open_common(ptr noundef %31, ptr noundef %32)
  %34 = icmp slt i32 %33, 0
  br i1 %34, label %35, label %50

35:                                               ; preds = %30
  br label %36

36:                                               ; preds = %35
  br label %37

37:                                               ; preds = %36
  br label %38

38:                                               ; preds = %37
  %39 = load i64, ptr @H5E_ATTR_g, align 8
  %40 = load i64, ptr @H5E_CANTINIT_g, align 8
  %41 = call i32 (ptr, ptr, i32, i64, i64, ptr, ...) @H5E_printf_stack(ptr noundef @.str.3, ptr noundef @__func__.H5A__open, i32 noundef 519, i64 noundef %39, i64 noundef %40, ptr noundef @.str.32)
  br label %42

42:                                               ; preds = %38
  store i8 1, ptr %7, align 1
  %43 = load i8, ptr %7, align 1
  %44 = trunc i8 %43 to i1
  %45 = zext i1 %44 to i8
  store i8 %45, ptr %7, align 1
  br label %46

46:                                               ; preds = %42
  br label %47

47:                                               ; preds = %46
  store ptr null, ptr %6, align 8
  br label %52

48:                                               ; No predecessors!
  br label %49

49:                                               ; preds = %48
  br label %50

50:                                               ; preds = %49, %30
  %51 = load ptr, ptr %5, align 8
  store ptr %51, ptr %6, align 8
  br label %52

52:                                               ; preds = %50, %47, %27
  %53 = load ptr, ptr %6, align 8
  %54 = icmp eq ptr %53, null
  br i1 %54, label %55, label %76

55:                                               ; preds = %52
  %56 = load ptr, ptr %5, align 8
  %57 = icmp ne ptr %56, null
  br i1 %57, label %58, label %75

58:                                               ; preds = %55
  %59 = load ptr, ptr %5, align 8
  %60 = call i32 @H5A__close(ptr noundef %59)
  %61 = icmp slt i32 %60, 0
  br i1 %61, label %62, label %75

62:                                               ; preds = %58
  br label %63

63:                                               ; preds = %62
  br label %64

64:                                               ; preds = %63
  br label %65

65:                                               ; preds = %64
  %66 = load i64, ptr @H5E_ATTR_g, align 8
  %67 = load i64, ptr @H5E_CANTFREE_g, align 8
  %68 = call i32 (ptr, ptr, i32, i64, i64, ptr, ...) @H5E_printf_stack(ptr noundef @.str.3, ptr noundef @__func__.H5A__open, i32 noundef 528, i64 noundef %66, i64 noundef %67, ptr noundef @.str.27)
  br label %69

69:                                               ; preds = %65
  store i8 1, ptr %7, align 1
  %70 = load i8, ptr %7, align 1
  %71 = trunc i8 %70 to i1
  %72 = zext i1 %71 to i8
  store i8 %72, ptr %7, align 1
  br label %73

73:                                               ; preds = %69
  store ptr null, ptr %6, align 8
  br label %74

74:                                               ; preds = %73
  br label %75

75:                                               ; preds = %74, %58, %55
  br label %76

76:                                               ; preds = %75, %52
  %77 = load ptr, ptr %6, align 8
  ret ptr %77
}