; Function Attrs: nounwind uwtable
define ptr @H5A__open(ptr nocapture noundef readonly %0, ptr noundef %1) local_unnamed_addr #0 {
  %3 = load ptr, ptr %0, align 8
  %4 = tail call ptr @H5O__attr_open_by_name(ptr noundef %3, ptr noundef %1) #13
  %5 = icmp eq ptr %4, null
  br i1 %5, label %6, label %10

6:                                                ; preds = %2
  %7 = load i64, ptr @H5E_ATTR_g, align 8
  %8 = load i64, ptr @H5E_CANTOPENOBJ_g, align 8
  %9 = tail call i32 (ptr, ptr, i32, i64, i64, ptr, ...) @H5E_printf_stack(ptr noundef nonnull @.str.3, ptr noundef nonnull @__func__.H5A__open, i32 noundef 515, i64 noundef %7, i64 noundef %8, ptr noundef nonnull @.str.31, ptr noundef %1) #13
  br label %.thread

10:                                               ; preds = %2
  %11 = tail call fastcc i32 @H5A__open_common(ptr noundef nonnull %0, ptr noundef nonnull %4)
  %12 = icmp slt i32 %11, 0
  br i1 %12, label %13, label %.thread

13:                                               ; preds = %10
  %14 = load i64, ptr @H5E_ATTR_g, align 8
  %15 = load i64, ptr @H5E_CANTINIT_g, align 8
  %16 = tail call i32 (ptr, ptr, i32, i64, i64, ptr, ...) @H5E_printf_stack(ptr noundef nonnull @.str.3, ptr noundef nonnull @__func__.H5A__open, i32 noundef 519, i64 noundef %14, i64 noundef %15, ptr noundef nonnull @.str.32) #13
  %17 = tail call i32 @H5A__close(ptr noundef nonnull %4)
  %18 = icmp slt i32 %17, 0
  br i1 %18, label %19, label %.thread

19:                                               ; preds = %13
  %20 = load i64, ptr @H5E_ATTR_g, align 8
  %21 = load i64, ptr @H5E_CANTFREE_g, align 8
  %22 = tail call i32 (ptr, ptr, i32, i64, i64, ptr, ...) @H5E_printf_stack(ptr noundef nonnull @.str.3, ptr noundef nonnull @__func__.H5A__open, i32 noundef 528, i64 noundef %20, i64 noundef %21, ptr noundef nonnull @.str.27) #13
  br label %.thread

.thread:                                          ; preds = %6, %10, %13, %19
  %.1 = phi ptr [ null, %19 ], [ null, %13 ], [ %4, %10 ], [ null, %6 ]
  ret ptr %.1
}